target datalayout = "e-m:e-p270:32:32-p271:32:32-p272:64:64-i64:64-i128:128-f80:128-n8:16:32:64-S128"
target triple = "x86_64-pc-linux-gnu"

%struct._packet_info = type { ptr, ptr, i32, i32, %struct.nstime_t, %struct.nstime_t, %struct.nstime_t, i8, ptr, ptr, ptr, ptr, %struct._address, %struct._address, %struct._address, %struct._address, %struct._address, %struct._address, i32, ptr, i8, [3 x i8], %struct.anon, i32, i32, i32, i32, ptr, i8, ptr, ptr, i16, i16, i32, i32, i16, i32, i32, ptr, ptr, ptr, i8, i8, i16, i16, i16, i32, i16, i16, ptr, ptr, ptr, ptr, ptr, i32, i32 }
%struct.nstime_t = type { i64, i32 }
%struct._address = type { i32, i32, ptr, ptr }
%struct.anon = type { i8, [3 x i8] }

@hf_gsm_a_dtap_epc_latitude_sign = internal global i32 0, align 4
@hf_gsm_a_dtap_epc_degrees_latitude = internal global i32 0, align 4
@hf_gsm_a_dtap_epc_degrees_longitude = internal global i32 0, align 4
@hf_gsm_a_dtap_epc_altitude_dir = internal global i32 0, align 4
@hf_gsm_a_dtap_epc_altitude = internal global i32 0, align 4
@.str.968 = private unnamed_addr constant [12 x i8] c"%s = %s: %d\00", align 1

; Function Attrs: null_pointer_is_valid sspstrong uwtable
define internal zeroext i16 @de_tp_epc_ellipsoid_point_with_alt(ptr noundef %0, ptr noundef %1, ptr noundef %2, i32 noundef %3, i32 noundef %4, ptr noundef %5, i32 noundef %6) #1 {
  %8 = alloca ptr, align 8
  %9 = alloca ptr, align 8
  %10 = alloca ptr, align 8
  %11 = alloca i32, align 4
  %12 = alloca i32, align 4
  %13 = alloca ptr, align 8
  %14 = alloca i32, align 4
  %15 = alloca i32, align 4
  %16 = alloca i32, align 4
  store ptr %0, ptr %8, align 8
  store ptr %1, ptr %9, align 8
  store ptr %2, ptr %10, align 8
  store i32 %3, ptr %11, align 4
  store i32 %4, ptr %12, align 4
  store ptr %5, ptr %13, align 8
  store i32 %6, ptr %14, align 4
  call void @llvm.lifetime.start.p0(i64 4, ptr %15) #7
  call void @llvm.lifetime.start.p0(i64 4, ptr %16) #7
  %17 = load i32, ptr %11, align 4
  store i32 %17, ptr %15, align 4
  %18 = load ptr, ptr %9, align 8
  %19 = load i32, ptr @hf_gsm_a_dtap_epc_latitude_sign, align 4
  %20 = load ptr, ptr %8, align 8
  %21 = load i32, ptr %15, align 4
  %22 = shl i32 %21, 3
  %23 = call ptr @proto_tree_add_bits_item(ptr noundef %18, i32 noundef %19, ptr noundef %20, i32 noundef %22, i32 noundef 1, i32 noundef 0)
  %24 = load ptr, ptr %9, align 8
  %25 = load i32, ptr @hf_gsm_a_dtap_epc_degrees_latitude, align 4
  %26 = load ptr, ptr %8, align 8
  %27 = load i32, ptr %15, align 4
  %28 = shl i32 %27, 3
  %29 = add i32 %28, 1
  %30 = call ptr @proto_tree_add_bits_item(ptr noundef %24, i32 noundef %25, ptr noundef %26, i32 noundef %29, i32 noundef 23, i32 noundef 0)
  %31 = load i32, ptr %15, align 4
  %32 = add i32 %31, 3
  store i32 %32, ptr %15, align 4
  %33 = load ptr, ptr %8, align 8
  %34 = load i32, ptr %15, align 4
  %35 = call i32 @tvb_get_ntoh24(ptr noundef %33, i32 noundef %34)
  store i32 %35, ptr %16, align 4
  %36 = load ptr, ptr %9, align 8
  %37 = load i32, ptr @hf_gsm_a_dtap_epc_degrees_longitude, align 4
  %38 = load ptr, ptr %8, align 8
  %39 = load i32, ptr %15, align 4
  %40 = load i32, ptr %16, align 4
  %41 = load ptr, ptr %10, align 8
  %42 = getelementptr inbounds nuw %struct._packet_info, ptr %41, i32 0, i32 51
  %43 = load ptr, ptr %42, align 8
  %44 = load i32, ptr %15, align 4
  %45 = shl i32 %44, 3
  %46 = load i32, ptr %16, align 4
  %47 = zext i32 %46 to i64
  %48 = call ptr @decode_bits_in_field(ptr noundef %43, i32 noundef %45, i32 noundef 24, i64 noundef %47, i32 noundef 0)
  %49 = load i32, ptr @hf_gsm_a_dtap_epc_degrees_longitude, align 4
  %50 = call ptr @proto_registrar_get_name(i32 noundef %49)
  %51 = load i32, ptr %16, align 4
  %52 = sub i32 %51, 8388608
  %53 = call ptr (ptr, i32, ptr, i32, i32, i32, ptr, ...) @proto_tree_add_int_format(ptr noundef %36, i32 noundef %37, ptr noundef %38, i32 noundef %39, i32 noundef 3, i32 noundef %40, ptr noundef @.str.968, ptr noundef %48, ptr noundef %50, i32 noundef %52)
  %54 = load i32, ptr %15, align 4
  %55 = add i32 %54, 3
  store i32 %55, ptr %15, align 4
  %56 = load ptr, ptr %9, align 8
  %57 = load i32, ptr @hf_gsm_a_dtap_epc_altitude_dir, align 4
  %58 = load ptr, ptr %8, align 8
  %59 = load i32, ptr %15, align 4
  %60 = shl i32 %59, 3
  %61 = call ptr @proto_tree_add_bits_item(ptr noundef %56, i32 noundef %57, ptr noundef %58, i32 noundef %60, i32 noundef 1, i32 noundef 0)
  %62 = load ptr, ptr %9, align 8
  %63 = load i32, ptr @hf_gsm_a_dtap_epc_altitude, align 4
  %64 = load ptr, ptr %8, align 8
  %65 = load i32, ptr %15, align 4
  %66 = shl i32 %65, 3
  %67 = add i32 %66, 1
  %68 = call ptr @proto_tree_add_bits_item(ptr noundef %62, i32 noundef %63, ptr noundef %64, i32 noundef %67, i32 noundef 15, i32 noundef 0)
  %69 = load i32, ptr %15, align 4
  %70 = add i32 %69, 2
  store i32 %70, ptr %15, align 4
  %71 = load i32, ptr %15, align 4
  %72 = load i32, ptr %11, align 4
  %73 = sub i32 %71, %72
  %74 = trunc i32 %73 to i16
  call void @llvm.lifetime.end.p0(i64 4, ptr %16) #7
  call void @llvm.lifetime.end.p0(i64 4, ptr %15) #7
  ret i16 %74
}