; Function Attrs: null_pointer_is_valid sspstrong uwtable
define internal noundef zeroext i16 @de_tp_epc_ellipsoid_point_with_alt(ptr noundef %0, ptr noundef %1, ptr noundef readonly captures(none) %2, i32 noundef %3, i32 %4, ptr readnone captures(none) %5, i32 %6) #1 {
  %8 = load i32, ptr @hf_gsm_a_dtap_epc_latitude_sign, align 4
  %9 = shl i32 %3, 3
  %10 = tail call ptr @proto_tree_add_bits_item(ptr noundef %1, i32 noundef %8, ptr noundef %0, i32 noundef %9, i32 noundef 1, i32 noundef 0)
  %11 = load i32, ptr @hf_gsm_a_dtap_epc_degrees_latitude, align 4
  %12 = or disjoint i32 %9, 1
  %13 = tail call ptr @proto_tree_add_bits_item(ptr noundef %1, i32 noundef %11, ptr noundef %0, i32 noundef %12, i32 noundef 23, i32 noundef 0)
  %14 = add i32 %3, 3
  %15 = tail call i32 @tvb_get_ntoh24(ptr noundef %0, i32 noundef %14)
  %16 = load i32, ptr @hf_gsm_a_dtap_epc_degrees_longitude, align 4
  %17 = getelementptr inbounds nuw i8, ptr %2, i64 408
  %18 = load ptr, ptr %17, align 8
  %19 = shl i32 %14, 3
  %20 = zext i32 %15 to i64
  %21 = tail call ptr @decode_bits_in_field(ptr noundef %18, i32 noundef %19, i32 noundef 24, i64 noundef %20, i32 noundef 0)
  %22 = load i32, ptr @hf_gsm_a_dtap_epc_degrees_longitude, align 4
  %23 = tail call ptr @proto_registrar_get_name(i32 noundef %22)
  %24 = add i32 %15, -8388608
  %25 = tail call ptr (ptr, i32, ptr, i32, i32, i32, ptr, ...) @proto_tree_add_int_format(ptr noundef %1, i32 noundef %16, ptr noundef %0, i32 noundef %14, i32 noundef 3, i32 noundef %15, ptr noundef nonnull @.str.968, ptr noundef %21, ptr noundef %23, i32 noundef %24)
  %26 = load i32, ptr @hf_gsm_a_dtap_epc_altitude_dir, align 4
  %27 = add i32 %9, 48
  %28 = tail call ptr @proto_tree_add_bits_item(ptr noundef %1, i32 noundef %26, ptr noundef %0, i32 noundef %27, i32 noundef 1, i32 noundef 0)
  %29 = load i32, ptr @hf_gsm_a_dtap_epc_altitude, align 4
  %30 = add i32 %9, 49
  %31 = tail call ptr @proto_tree_add_bits_item(ptr noundef %1, i32 noundef %29, ptr noundef %0, i32 noundef %30, i32 noundef 15, i32 noundef 0)
  ret i16 8
}